; Function Attrs: mustprogress nofree norecurse nosync nounwind willreturn memory(argmem: read) uwtable
define hidden noundef zeroext i1 @_ZN14KlassDepChange16involves_contextEP5Klass(ptr nocapture noundef nonnull readnone align 8 dereferenceable(16) %0, ptr noundef readonly %1) local_unnamed_addr #5 align 2 {
  %3 = icmp eq ptr %1, null
  br i1 %3, label %13, label %4

4:                                                ; preds = %2
  %5 = getelementptr inbounds i8, ptr %1, i64 12
  %6 = load i32, ptr %5, align 4
  %7 = icmp slt i32 %6, 5
  br i1 %7, label %8, label %13

8:                                                ; preds = %4
  %9 = getelementptr inbounds i8, ptr %1, i64 310
  %10 = load i8, ptr %9, align 2
  %11 = and i8 %10, 16
  %12 = icmp ne i8 %11, 0
  br label %13

13:                                               ; preds = %2, %4, %8
  %.0 = phi i1 [ %12, %8 ], [ false, %4 ], [ false, %2 ]
  ret i1 %.0
}